target datalayout = "e-m:e-p270:32:32-p271:32:32-p272:64:64-i64:64-i128:128-f80:128-n8:16:32:64-S128"
target triple = "x86_64-pc-linux-gnu"

@.str.3 = private unnamed_addr constant [2 x i8] c"\0A\00", align 1
@.str.4 = private unnamed_addr constant [22 x i8] c"Verification failed!\0A\00", align 1

; Function Attrs: nounwind uwtable
define internal void @If_Dec7ComposeLut4(i32 noundef %0, ptr noundef %1, ptr noundef %2) #0 {
  %4 = alloca i32, align 4
  %5 = alloca ptr, align 8
  %6 = alloca ptr, align 8
  %7 = alloca i32, align 4
  %8 = alloca i32, align 4
  %9 = alloca [2 x i64], align 16
  store i32 %0, ptr %4, align 4, !tbaa !7
  store ptr %1, ptr %5, align 8, !tbaa !15
  store ptr %2, ptr %6, align 8, !tbaa !15
  call void @llvm.lifetime.start.p0(i64 4, ptr %7) #7
  call void @llvm.lifetime.start.p0(i64 4, ptr %8) #7
  call void @llvm.lifetime.start.p0(i64 16, ptr %9) #7
  %10 = load ptr, ptr %6, align 8, !tbaa !15
  %11 = getelementptr inbounds i64, ptr %10, i64 1
  store i64 0, ptr %11, align 8, !tbaa !3
  %12 = load ptr, ptr %6, align 8, !tbaa !15
  %13 = getelementptr inbounds i64, ptr %12, i64 0
  store i64 0, ptr %13, align 8, !tbaa !3
  store i32 0, ptr %7, align 4, !tbaa !7
  br label %14

14:                                               ; preds = %97, %3
  %15 = load i32, ptr %7, align 4, !tbaa !7
  %16 = icmp slt i32 %15, 16
  br i1 %16, label %17, label %100

17:                                               ; preds = %14
  %18 = load i32, ptr %4, align 4, !tbaa !7
  %19 = load i32, ptr %7, align 4, !tbaa !7
  %20 = ashr i32 %18, %19
  %21 = and i32 %20, 1
  %22 = icmp ne i32 %21, 0
  br i1 %22, label %24, label %23

23:                                               ; preds = %17
  br label %97

24:                                               ; preds = %17
  %25 = getelementptr inbounds [2 x i64], ptr %9, i64 0, i64 1
  store i64 -1, ptr %25, align 8, !tbaa !3
  %26 = getelementptr inbounds [2 x i64], ptr %9, i64 0, i64 0
  store i64 -1, ptr %26, align 16, !tbaa !3
  store i32 0, ptr %8, align 4, !tbaa !7
  br label %27

27:                                               ; preds = %81, %24
  %28 = load i32, ptr %8, align 4, !tbaa !7
  %29 = icmp slt i32 %28, 4
  br i1 %29, label %30, label %84

30:                                               ; preds = %27
  %31 = load i32, ptr %7, align 4, !tbaa !7
  %32 = load i32, ptr %8, align 4, !tbaa !7
  %33 = ashr i32 %31, %32
  %34 = and i32 %33, 1
  %35 = icmp ne i32 %34, 0
  br i1 %35, label %36, label %43

36:                                               ; preds = %30
  %37 = load ptr, ptr %5, align 8, !tbaa !15
  %38 = load i32, ptr %8, align 4, !tbaa !7
  %39 = sext i32 %38 to i64
  %40 = getelementptr inbounds [2 x i64], ptr %37, i64 %39
  %41 = getelementptr inbounds [2 x i64], ptr %40, i64 0, i64 0
  %42 = load i64, ptr %41, align 8, !tbaa !3
  br label %51

43:                                               ; preds = %30
  %44 = load ptr, ptr %5, align 8, !tbaa !15
  %45 = load i32, ptr %8, align 4, !tbaa !7
  %46 = sext i32 %45 to i64
  %47 = getelementptr inbounds [2 x i64], ptr %44, i64 %46
  %48 = getelementptr inbounds [2 x i64], ptr %47, i64 0, i64 0
  %49 = load i64, ptr %48, align 8, !tbaa !3
  %50 = xor i64 %49, -1
  br label %51

51:                                               ; preds = %43, %36
  %52 = phi i64 [ %42, %36 ], [ %50, %43 ]
  %53 = getelementptr inbounds [2 x i64], ptr %9, i64 0, i64 0
  %54 = load i64, ptr %53, align 16, !tbaa !3
  %55 = and i64 %54, %52
  store i64 %55, ptr %53, align 16, !tbaa !3
  %56 = load i32, ptr %7, align 4, !tbaa !7
  %57 = load i32, ptr %8, align 4, !tbaa !7
  %58 = ashr i32 %56, %57
  %59 = and i32 %58, 1
  %60 = icmp ne i32 %59, 0
  br i1 %60, label %61, label %68

61:                                               ; preds = %51
  %62 = load ptr, ptr %5, align 8, !tbaa !15
  %63 = load i32, ptr %8, align 4, !tbaa !7
  %64 = sext i32 %63 to i64
  %65 = getelementptr inbounds [2 x i64], ptr %62, i64 %64
  %66 = getelementptr inbounds [2 x i64], ptr %65, i64 0, i64 1
  %67 = load i64, ptr %66, align 8, !tbaa !3
  br label %76

68:                                               ; preds = %51
  %69 = load ptr, ptr %5, align 8, !tbaa !15
  %70 = load i32, ptr %8, align 4, !tbaa !7
  %71 = sext i32 %70 to i64
  %72 = getelementptr inbounds [2 x i64], ptr %69, i64 %71
  %73 = getelementptr inbounds [2 x i64], ptr %72, i64 0, i64 1
  %74 = load i64, ptr %73, align 8, !tbaa !3
  %75 = xor i64 %74, -1
  br label %76

76:                                               ; preds = %68, %61
  %77 = phi i64 [ %67, %61 ], [ %75, %68 ]
  %78 = getelementptr inbounds [2 x i64], ptr %9, i64 0, i64 1
  %79 = load i64, ptr %78, align 8, !tbaa !3
  %80 = and i64 %79, %77
  store i64 %80, ptr %78, align 8, !tbaa !3
  br label %81

81:                                               ; preds = %76
  %82 = load i32, ptr %8, align 4, !tbaa !7
  %83 = add nsw i32 %82, 1
  store i32 %83, ptr %8, align 4, !tbaa !7
  br label %27, !llvm.loop !21

84:                                               ; preds = %27
  %85 = getelementptr inbounds [2 x i64], ptr %9, i64 0, i64 0
  %86 = load i64, ptr %85, align 16, !tbaa !3
  %87 = load ptr, ptr %6, align 8, !tbaa !15
  %88 = getelementptr inbounds i64, ptr %87, i64 0
  %89 = load i64, ptr %88, align 8, !tbaa !3
  %90 = or i64 %89, %86
  store i64 %90, ptr %88, align 8, !tbaa !3
  %91 = getelementptr inbounds [2 x i64], ptr %9, i64 0, i64 1
  %92 = load i64, ptr %91, align 8, !tbaa !3
  %93 = load ptr, ptr %6, align 8, !tbaa !15
  %94 = getelementptr inbounds i64, ptr %93, i64 1
  %95 = load i64, ptr %94, align 8, !tbaa !3
  %96 = or i64 %95, %92
  store i64 %96, ptr %94, align 8, !tbaa !3
  br label %97

97:                                               ; preds = %84, %23
  %98 = load i32, ptr %7, align 4, !tbaa !7
  %99 = add nsw i32 %98, 1
  store i32 %99, ptr %7, align 4, !tbaa !7
  br label %14, !llvm.loop !22

100:                                              ; preds = %14
  call void @llvm.lifetime.end.p0(i64 16, ptr %9) #7
  call void @llvm.lifetime.end.p0(i64 4, ptr %8) #7
  call void @llvm.lifetime.end.p0(i64 4, ptr %7) #7
  ret void
}

; Function Attrs: nounwind uwtable
define void @If_Dec7Verify(ptr noundef %0, i64 noundef %1) #0 {
  %3 = alloca ptr, align 8
  %4 = alloca i64, align 8
  %5 = alloca [4 x [2 x i64]], align 16
  %6 = alloca [2 x i64], align 16
  %7 = alloca i32, align 4
  %8 = alloca i32, align 4
  store ptr %0, ptr %3, align 8, !tbaa !15
  store i64 %1, ptr %4, align 8, !tbaa !3
  call void @llvm.lifetime.start.p0(i64 64, ptr %5) #7
  call void @llvm.lifetime.start.p0(i64 16, ptr %6) #7
  call void @llvm.lifetime.start.p0(i64 4, ptr %7) #7
  call void @llvm.lifetime.start.p0(i64 4, ptr %8) #7
  store i32 0, ptr %7, align 4, !tbaa !7
  br label %9

9:                                                ; preds = %39, %2
  %10 = load i32, ptr %7, align 4, !tbaa !7
  %11 = icmp slt i32 %10, 4
  br i1 %11, label %12, label %42

12:                                               ; preds = %9
  %13 = load i64, ptr %4, align 8, !tbaa !3
  %14 = load i32, ptr %7, align 4, !tbaa !7
  %15 = shl i32 %14, 2
  %16 = add nsw i32 16, %15
  %17 = zext i32 %16 to i64
  %18 = lshr i64 %13, %17
  %19 = and i64 %18, 7
  %20 = trunc i64 %19 to i32
  store i32 %20, ptr %8, align 4, !tbaa !7
  %21 = load i32, ptr %8, align 4, !tbaa !7
  %22 = sext i32 %21 to i64
  %23 = getelementptr inbounds [7 x [2 x i64]], ptr @Truth7, i64 0, i64 %22
  %24 = getelementptr inbounds [2 x i64], ptr %23, i64 0, i64 0
  %25 = load i64, ptr %24, align 16, !tbaa !3
  %26 = load i32, ptr %7, align 4, !tbaa !7
  %27 = sext i32 %26 to i64
  %28 = getelementptr inbounds [4 x [2 x i64]], ptr %5, i64 0, i64 %27
  %29 = getelementptr inbounds [2 x i64], ptr %28, i64 0, i64 0
  store i64 %25, ptr %29, align 16, !tbaa !3
  %30 = load i32, ptr %8, align 4, !tbaa !7
  %31 = sext i32 %30 to i64
  %32 = getelementptr inbounds [7 x [2 x i64]], ptr @Truth7, i64 0, i64 %31
  %33 = getelementptr inbounds [2 x i64], ptr %32, i64 0, i64 1
  %34 = load i64, ptr %33, align 8, !tbaa !3
  %35 = load i32, ptr %7, align 4, !tbaa !7
  %36 = sext i32 %35 to i64
  %37 = getelementptr inbounds [4 x [2 x i64]], ptr %5, i64 0, i64 %36
  %38 = getelementptr inbounds [2 x i64], ptr %37, i64 0, i64 1
  store i64 %34, ptr %38, align 8, !tbaa !3
  br label %39

39:                                               ; preds = %12
  %40 = load i32, ptr %7, align 4, !tbaa !7
  %41 = add nsw i32 %40, 1
  store i32 %41, ptr %7, align 4, !tbaa !7
  br label %9, !llvm.loop !19

42:                                               ; preds = %9
  %43 = load i64, ptr %4, align 8, !tbaa !3
  %44 = and i64 %43, 65535
  %45 = trunc i64 %44 to i32
  %46 = getelementptr inbounds [4 x [2 x i64]], ptr %5, i64 0, i64 0
  %47 = getelementptr inbounds [2 x i64], ptr %6, i64 0, i64 0
  call void @If_Dec7ComposeLut4(i32 noundef %45, ptr noundef %46, ptr noundef %47)
  %48 = getelementptr inbounds [2 x i64], ptr %6, i64 0, i64 0
  %49 = load i64, ptr %48, align 16, !tbaa !3
  %50 = getelementptr inbounds [4 x [2 x i64]], ptr %5, i64 0, i64 3
  %51 = getelementptr inbounds [2 x i64], ptr %50, i64 0, i64 0
  store i64 %49, ptr %51, align 16, !tbaa !3
  %52 = getelementptr inbounds [2 x i64], ptr %6, i64 0, i64 1
  %53 = load i64, ptr %52, align 8, !tbaa !3
  %54 = getelementptr inbounds [4 x [2 x i64]], ptr %5, i64 0, i64 3
  %55 = getelementptr inbounds [2 x i64], ptr %54, i64 0, i64 1
  store i64 %53, ptr %55, align 8, !tbaa !3
  store i32 0, ptr %7, align 4, !tbaa !7
  br label %56

56:                                               ; preds = %86, %42
  %57 = load i32, ptr %7, align 4, !tbaa !7
  %58 = icmp slt i32 %57, 3
  br i1 %58, label %59, label %89

59:                                               ; preds = %56
  %60 = load i64, ptr %4, align 8, !tbaa !3
  %61 = load i32, ptr %7, align 4, !tbaa !7
  %62 = shl i32 %61, 2
  %63 = add nsw i32 48, %62
  %64 = zext i32 %63 to i64
  %65 = lshr i64 %60, %64
  %66 = and i64 %65, 7
  %67 = trunc i64 %66 to i32
  store i32 %67, ptr %8, align 4, !tbaa !7
  %68 = load i32, ptr %8, align 4, !tbaa !7
  %69 = sext i32 %68 to i64
  %70 = getelementptr inbounds [7 x [2 x i64]], ptr @Truth7, i64 0, i64 %69
  %71 = getelementptr inbounds [2 x i64], ptr %70, i64 0, i64 0
  %72 = load i64, ptr %71, align 16, !tbaa !3
  %73 = load i32, ptr %7, align 4, !tbaa !7
  %74 = sext i32 %73 to i64
  %75 = getelementptr inbounds [4 x [2 x i64]], ptr %5, i64 0, i64 %74
  %76 = getelementptr inbounds [2 x i64], ptr %75, i64 0, i64 0
  store i64 %72, ptr %76, align 16, !tbaa !3
  %77 = load i32, ptr %8, align 4, !tbaa !7
  %78 = sext i32 %77 to i64
  %79 = getelementptr inbounds [7 x [2 x i64]], ptr @Truth7, i64 0, i64 %78
  %80 = getelementptr inbounds [2 x i64], ptr %79, i64 0, i64 1
  %81 = load i64, ptr %80, align 8, !tbaa !3
  %82 = load i32, ptr %7, align 4, !tbaa !7
  %83 = sext i32 %82 to i64
  %84 = getelementptr inbounds [4 x [2 x i64]], ptr %5, i64 0, i64 %83
  %85 = getelementptr inbounds [2 x i64], ptr %84, i64 0, i64 1
  store i64 %81, ptr %85, align 8, !tbaa !3
  br label %86

86:                                               ; preds = %59
  %87 = load i32, ptr %7, align 4, !tbaa !7
  %88 = add nsw i32 %87, 1
  store i32 %88, ptr %7, align 4, !tbaa !7
  br label %56, !llvm.loop !20

89:                                               ; preds = %56
  %90 = load i64, ptr %4, align 8, !tbaa !3
  %91 = lshr i64 %90, 32
  %92 = and i64 %91, 65535
  %93 = trunc i64 %92 to i32
  %94 = getelementptr inbounds [4 x [2 x i64]], ptr %5, i64 0, i64 0
  %95 = getelementptr inbounds [2 x i64], ptr %6, i64 0, i64 0
  call void @If_Dec7ComposeLut4(i32 noundef %93, ptr noundef %94, ptr noundef %95)
  %96 = getelementptr inbounds [2 x i64], ptr %6, i64 0, i64 0
  %97 = load i64, ptr %96, align 16, !tbaa !3
  %98 = load ptr, ptr %3, align 8, !tbaa !15
  %99 = getelementptr inbounds i64, ptr %98, i64 0
  %100 = load i64, ptr %99, align 8, !tbaa !3
  %101 = icmp ne i64 %97, %100
  br i1 %101, label %109, label %102

102:                                              ; preds = %89
  %103 = getelementptr inbounds [2 x i64], ptr %6, i64 0, i64 1
  %104 = load i64, ptr %103, align 8, !tbaa !3
  %105 = load ptr, ptr %3, align 8, !tbaa !15
  %106 = getelementptr inbounds i64, ptr %105, i64 1
  %107 = load i64, ptr %106, align 8, !tbaa !3
  %108 = icmp ne i64 %104, %107
  br i1 %108, label %109, label %116

109:                                              ; preds = %102, %89
  %110 = load i64, ptr %4, align 8, !tbaa !3
  call void @If_DecPrintConfig(i64 noundef %110)
  %111 = load ptr, ptr %3, align 8, !tbaa !15
  call void @Kit_DsdPrintFromTruth(ptr noundef %111, i32 noundef 7)
  %112 = call i32 (ptr, ...) @printf(ptr noundef @.str.3)
  %113 = getelementptr inbounds [2 x i64], ptr %6, i64 0, i64 0
  call void @Kit_DsdPrintFromTruth(ptr noundef %113, i32 noundef 7)
  %114 = call i32 (ptr, ...) @printf(ptr noundef @.str.3)
  %115 = call i32 (ptr, ...) @printf(ptr noundef @.str.4)
  br label %116

116:                                              ; preds = %109, %102
  call void @llvm.lifetime.end.p0(i64 4, ptr %8) #7
  call void @llvm.lifetime.end.p0(i64 4, ptr %7) #7
  call void @llvm.lifetime.end.p0(i64 16, ptr %6) #7
  call void @llvm.lifetime.end.p0(i64 64, ptr %5) #7
  ret void
}