; Function Attrs: nounwind uwtable
define void @If_Dec7Verify(ptr noundef %0, i64 noundef %1) local_unnamed_addr #0 {
  %3 = alloca [4 x [2 x i64]], align 16
  %4 = alloca [2 x i64], align 16
  call void @llvm.lifetime.start.p0(i64 64, ptr nonnull %3) #14
  call void @llvm.lifetime.start.p0(i64 16, ptr nonnull %4) #14
  br label %5

5:                                                ; preds = %2, %5
  %indvars.iv = phi i64 [ 0, %2 ], [ %indvars.iv.next, %5 ]
  %6 = shl nuw nsw i64 %indvars.iv, 2
  %7 = add nuw nsw i64 %6, 16
  %8 = lshr i64 %1, %7
  %9 = and i64 %8, 7
  %10 = getelementptr inbounds nuw [7 x [2 x i64]], ptr @Truth7, i64 0, i64 %9
  %11 = load i64, ptr %10, align 16, !tbaa !10
  %12 = getelementptr inbounds nuw [4 x [2 x i64]], ptr %3, i64 0, i64 %indvars.iv
  store i64 %11, ptr %12, align 16, !tbaa !10
  %13 = getelementptr inbounds nuw i8, ptr %10, i64 8
  %14 = load i64, ptr %13, align 8, !tbaa !10
  %15 = getelementptr inbounds nuw i8, ptr %12, i64 8
  store i64 %14, ptr %15, align 8, !tbaa !10
  %indvars.iv.next = add nuw nsw i64 %indvars.iv, 1
  %exitcond.not = icmp eq i64 %indvars.iv.next, 4
  br i1 %exitcond.not, label %16, label %5, !llvm.loop !17

16:                                               ; preds = %5
  %17 = trunc i64 %1 to i32
  %18 = and i32 %17, 65535
  %19 = getelementptr inbounds nuw i8, ptr %4, i64 8
  br label %20

20:                                               ; preds = %47, %16
  %21 = phi i64 [ 0, %16 ], [ %48, %47 ]
  %22 = phi i64 [ 0, %16 ], [ %49, %47 ]
  %23 = phi i64 [ 0, %16 ], [ %50, %47 ]
  %24 = phi i64 [ 0, %16 ], [ %51, %47 ]
  %.02328.i = phi i32 [ 0, %16 ], [ %52, %47 ]
  %25 = shl nuw nsw i32 1, %.02328.i
  %26 = and i32 %18, %25
  %.not.i = icmp eq i32 %26, 0
  br i1 %.not.i, label %47, label %.preheader.i

.preheader.i:                                     ; preds = %20, %40
  %indvars.iv.i = phi i64 [ %indvars.iv.next.i, %40 ], [ 0, %20 ]
  %.sroa.0.027.i = phi i64 [ %42, %40 ], [ -1, %20 ]
  %.sroa.6.026.i = phi i64 [ %43, %40 ], [ -1, %20 ]
  %27 = trunc nuw nsw i64 %indvars.iv.i to i32
  %28 = shl nuw nsw i32 1, %27
  %29 = and i32 %28, %.02328.i
  %.not24.i = icmp eq i32 %29, 0
  %30 = getelementptr inbounds nuw [2 x i64], ptr %3, i64 %indvars.iv.i
  %31 = load i64, ptr %30, align 16, !tbaa !10
  br i1 %.not24.i, label %35, label %32

32:                                               ; preds = %.preheader.i
  %33 = getelementptr inbounds nuw [2 x i64], ptr %3, i64 %indvars.iv.i, i64 1
  %34 = load i64, ptr %33, align 8, !tbaa !10
  br label %40

35:                                               ; preds = %.preheader.i
  %36 = xor i64 %31, -1
  %37 = getelementptr inbounds nuw [2 x i64], ptr %3, i64 %indvars.iv.i, i64 1
  %38 = load i64, ptr %37, align 8, !tbaa !10
  %39 = xor i64 %38, -1
  br label %40

40:                                               ; preds = %35, %32
  %.pn.i = phi i64 [ %31, %32 ], [ %36, %35 ]
  %41 = phi i64 [ %34, %32 ], [ %39, %35 ]
  %42 = and i64 %.pn.i, %.sroa.0.027.i
  %43 = and i64 %41, %.sroa.6.026.i
  %indvars.iv.next.i = add nuw nsw i64 %indvars.iv.i, 1
  %exitcond.not.i = icmp eq i64 %indvars.iv.next.i, 4
  br i1 %exitcond.not.i, label %44, label %.preheader.i, !llvm.loop !18

44:                                               ; preds = %40
  %45 = or i64 %42, %24
  %46 = or i64 %43, %23
  br label %47

47:                                               ; preds = %44, %20
  %48 = phi i64 [ %21, %20 ], [ %46, %44 ]
  %49 = phi i64 [ %22, %20 ], [ %45, %44 ]
  %50 = phi i64 [ %23, %20 ], [ %46, %44 ]
  %51 = phi i64 [ %24, %20 ], [ %45, %44 ]
  %52 = add nuw nsw i32 %.02328.i, 1
  %exitcond31.not.i = icmp eq i32 %52, 16
  br i1 %exitcond31.not.i, label %If_Dec7ComposeLut4.exit, label %20, !llvm.loop !19

If_Dec7ComposeLut4.exit:                          ; preds = %47
  %53 = getelementptr inbounds nuw i8, ptr %3, i64 48
  store i64 %49, ptr %53, align 16, !tbaa !10
  %54 = getelementptr inbounds nuw i8, ptr %3, i64 56
  store i64 %48, ptr %54, align 8, !tbaa !10
  br label %55

55:                                               ; preds = %If_Dec7ComposeLut4.exit, %55
  %indvars.iv55 = phi i64 [ 0, %If_Dec7ComposeLut4.exit ], [ %indvars.iv.next56, %55 ]
  %56 = shl nuw nsw i64 %indvars.iv55, 2
  %57 = add nuw nsw i64 %56, 48
  %58 = lshr i64 %1, %57
  %59 = and i64 %58, 7
  %60 = getelementptr inbounds nuw [7 x [2 x i64]], ptr @Truth7, i64 0, i64 %59
  %61 = load i64, ptr %60, align 16, !tbaa !10
  %62 = getelementptr inbounds nuw [4 x [2 x i64]], ptr %3, i64 0, i64 %indvars.iv55
  store i64 %61, ptr %62, align 16, !tbaa !10
  %63 = getelementptr inbounds nuw i8, ptr %60, i64 8
  %64 = load i64, ptr %63, align 8, !tbaa !10
  %65 = getelementptr inbounds nuw i8, ptr %62, i64 8
  store i64 %64, ptr %65, align 8, !tbaa !10
  %indvars.iv.next56 = add nuw nsw i64 %indvars.iv55, 1
  %exitcond58.not = icmp eq i64 %indvars.iv.next56, 3
  br i1 %exitcond58.not, label %66, label %55, !llvm.loop !20

66:                                               ; preds = %55
  %67 = lshr i64 %1, 32
  %68 = trunc nuw i64 %67 to i32
  %69 = and i32 %68, 65535
  br label %70

70:                                               ; preds = %97, %66
  %71 = phi i64 [ 0, %66 ], [ %98, %97 ]
  %72 = phi i64 [ 0, %66 ], [ %99, %97 ]
  %73 = phi i64 [ 0, %66 ], [ %100, %97 ]
  %74 = phi i64 [ 0, %66 ], [ %101, %97 ]
  %.02328.i23 = phi i32 [ 0, %66 ], [ %102, %97 ]
  %75 = shl nuw nsw i32 1, %.02328.i23
  %76 = and i32 %69, %75
  %.not.i24 = icmp eq i32 %76, 0
  br i1 %.not.i24, label %97, label %.preheader.i25

.preheader.i25:                                   ; preds = %70, %90
  %indvars.iv.i26 = phi i64 [ %indvars.iv.next.i31, %90 ], [ 0, %70 ]
  %.sroa.0.027.i27 = phi i64 [ %92, %90 ], [ -1, %70 ]
  %.sroa.6.026.i28 = phi i64 [ %93, %90 ], [ -1, %70 ]
  %77 = trunc nuw nsw i64 %indvars.iv.i26 to i32
  %78 = shl nuw nsw i32 1, %77
  %79 = and i32 %78, %.02328.i23
  %.not24.i29 = icmp eq i32 %79, 0
  %80 = getelementptr inbounds nuw [2 x i64], ptr %3, i64 %indvars.iv.i26
  %81 = load i64, ptr %80, align 16, !tbaa !10
  br i1 %.not24.i29, label %85, label %82

82:                                               ; preds = %.preheader.i25
  %83 = getelementptr inbounds nuw [2 x i64], ptr %3, i64 %indvars.iv.i26, i64 1
  %84 = load i64, ptr %83, align 8, !tbaa !10
  br label %90

85:                                               ; preds = %.preheader.i25
  %86 = xor i64 %81, -1
  %87 = getelementptr inbounds nuw [2 x i64], ptr %3, i64 %indvars.iv.i26, i64 1
  %88 = load i64, ptr %87, align 8, !tbaa !10
  %89 = xor i64 %88, -1
  br label %90

90:                                               ; preds = %85, %82
  %.pn.i30 = phi i64 [ %81, %82 ], [ %86, %85 ]
  %91 = phi i64 [ %84, %82 ], [ %89, %85 ]
  %92 = and i64 %.pn.i30, %.sroa.0.027.i27
  %93 = and i64 %91, %.sroa.6.026.i28
  %indvars.iv.next.i31 = add nuw nsw i64 %indvars.iv.i26, 1
  %exitcond.not.i32 = icmp eq i64 %indvars.iv.next.i31, 4
  br i1 %exitcond.not.i32, label %94, label %.preheader.i25, !llvm.loop !18

94:                                               ; preds = %90
  %95 = or i64 %92, %74
  %96 = or i64 %93, %73
  br label %97

97:                                               ; preds = %94, %70
  %98 = phi i64 [ %71, %70 ], [ %96, %94 ]
  %99 = phi i64 [ %72, %70 ], [ %95, %94 ]
  %100 = phi i64 [ %73, %70 ], [ %96, %94 ]
  %101 = phi i64 [ %74, %70 ], [ %95, %94 ]
  %102 = add nuw nsw i32 %.02328.i23, 1
  %exitcond31.not.i33 = icmp eq i32 %102, 16
  br i1 %exitcond31.not.i33, label %If_Dec7ComposeLut4.exit34, label %70, !llvm.loop !19

If_Dec7ComposeLut4.exit34:                        ; preds = %97
  store i64 %99, ptr %4, align 16
  store i64 %98, ptr %19, align 8
  %103 = load i64, ptr %0, align 8, !tbaa !10
  %.not = icmp eq i64 %99, %103
  br i1 %.not, label %104, label %107

104:                                              ; preds = %If_Dec7ComposeLut4.exit34
  %105 = getelementptr inbounds nuw i8, ptr %0, i64 8
  %106 = load i64, ptr %105, align 8, !tbaa !10
  %.not21 = icmp eq i64 %98, %106
  br i1 %.not21, label %108, label %107

107:                                              ; preds = %104, %If_Dec7ComposeLut4.exit34
  tail call void @If_DecPrintConfig(i64 noundef %1)
  tail call void @Kit_DsdPrintFromTruth(ptr noundef nonnull %0, i32 noundef 7) #14
  %putchar = tail call i32 @putchar(i32 10)
  call void @Kit_DsdPrintFromTruth(ptr noundef nonnull %4, i32 noundef 7) #14
  %putchar22 = call i32 @putchar(i32 10)
  %puts = call i32 @puts(ptr nonnull dereferenceable(1) @str.1)
  br label %108

108:                                              ; preds = %107, %104
  call void @llvm.lifetime.end.p0(i64 16, ptr nonnull %4) #14
  call void @llvm.lifetime.end.p0(i64 64, ptr nonnull %3) #14
  ret void
}